; Function Attrs: nofree nounwind uwtable
define dso_local noalias noundef ptr @arhosekskymodelstate_alloc_init(double noundef %0, double noundef %1, double noundef %2) local_unnamed_addr #5 {
  %4 = tail call noalias dereferenceable_or_null(1088) ptr @malloc(i64 noundef 1088) #13
  %5 = getelementptr inbounds nuw i8, ptr %4, i64 888
  store double 0x3F723AC80BF81B3F, ptr %5, align 8, !tbaa !15
  %6 = getelementptr inbounds nuw i8, ptr %4, i64 880
  store double %1, ptr %6, align 8, !tbaa !17
  %7 = getelementptr inbounds nuw i8, ptr %4, i64 1072
  store double %2, ptr %7, align 8, !tbaa !18
  %8 = getelementptr inbounds nuw i8, ptr %4, i64 1080
  store double %0, ptr %8, align 8, !tbaa !19
  %9 = getelementptr inbounds nuw i8, ptr %4, i64 792
  %10 = getelementptr inbounds nuw i8, ptr %4, i64 984
  %11 = getelementptr inbounds nuw i8, ptr %4, i64 896
  br label %12

12:                                               ; preds = %3, %12
  %indvars.iv = phi i64 [ 0, %3 ], [ %indvars.iv.next, %12 ]
  %13 = getelementptr inbounds nuw [11 x ptr], ptr @datasets, i64 0, i64 %indvars.iv
  %14 = load ptr, ptr %13, align 8, !tbaa !20
  %15 = getelementptr inbounds nuw [11 x [9 x double]], ptr %4, i64 0, i64 %indvars.iv
  tail call void @ArHosekSkyModel_CookConfiguration(ptr noundef %14, ptr noundef %15, double noundef %1, double noundef %2, double noundef %0)
  %16 = getelementptr inbounds nuw [11 x ptr], ptr @datasetsRad, i64 0, i64 %indvars.iv
  %17 = load ptr, ptr %16, align 8, !tbaa !20
  %18 = tail call double @ArHosekSkyModel_CookRadianceConfiguration(ptr noundef %17, double noundef %1, double noundef %2, double noundef %0)
  %19 = getelementptr inbounds nuw [11 x double], ptr %9, i64 0, i64 %indvars.iv
  store double %18, ptr %19, align 8, !tbaa !8
  %20 = getelementptr inbounds nuw [11 x double], ptr %10, i64 0, i64 %indvars.iv
  store double 1.000000e+00, ptr %20, align 8, !tbaa !8
  %21 = getelementptr inbounds nuw [11 x double], ptr %11, i64 0, i64 %indvars.iv
  store double 1.000000e+00, ptr %21, align 8, !tbaa !8
  %indvars.iv.next = add nuw nsw i64 %indvars.iv, 1
  %exitcond.not = icmp eq i64 %indvars.iv.next, 11
  br i1 %exitcond.not, label %22, label %12, !llvm.loop !23

22:                                               ; preds = %12
  ret ptr %4
}